target datalayout = "e-m:e-p270:32:32-p271:32:32-p272:64:64-i64:64-i128:128-f80:128-n8:16:32:64-S128"
target triple = "x86_64-pc-linux-gnu"

%struct.slurmdb_assoc_rec = type { ptr, ptr, ptr, ptr, ptr, ptr, ptr, i32, i32, i32, i32, i32, ptr, ptr, ptr, ptr, ptr, ptr, i32, i32, i16, ptr, ptr, i32, i32, i32, ptr, ptr, ptr, ptr, ptr, ptr, ptr, ptr, i32, i32, ptr, i32, ptr, i32, ptr, i32, i32, ptr, ptr, ptr }
%struct.slurmdb_account_rec_t = type { ptr, ptr, ptr, i32, ptr, ptr }
%struct.slurmdb_assoc_cond_t = type { ptr, ptr, ptr, i32, ptr, ptr, ptr, ptr, ptr, i64, i64, ptr }
%struct.slurmdb_account_cond_t = type { ptr, ptr, i32, ptr }
%struct.sacctmgr_file_opts_t = type { i32, %struct.slurmdb_assoc_rec, i16, ptr, ptr, ptr, ptr, ptr, ptr, ptr }

@db_conn = external global ptr, align 8
@.str.90 = private unnamed_addr constant [8 x i8] c"Account\00", align 1
@.str.122 = private unnamed_addr constant [3 x i8] c"%s\00", align 1
@.str.127 = private unnamed_addr constant [40 x i8] c"%-30.30s for %-7.7s %-10.10s %8s -> %s\0A\00", align 1
@.str.182 = private unnamed_addr constant [21 x i8] c" Changed description\00", align 1
@.str.183 = private unnamed_addr constant [22 x i8] c" Changed organization\00", align 1

; Function Attrs: nounwind uwtable
define internal i32 @_mod_acct(ptr noundef %0, ptr noundef %1, ptr noundef %2) #0 {
  %4 = alloca ptr, align 8
  %5 = alloca ptr, align 8
  %6 = alloca ptr, align 8
  %7 = alloca i32, align 4
  %8 = alloca ptr, align 8
  %9 = alloca ptr, align 8
  %10 = alloca ptr, align 8
  %11 = alloca %struct.slurmdb_account_rec_t, align 8
  %12 = alloca %struct.slurmdb_account_cond_t, align 8
  %13 = alloca %struct.slurmdb_assoc_cond_t, align 8
  %14 = alloca ptr, align 8
  store ptr %0, ptr %4, align 8
  store ptr %1, ptr %5, align 8
  store ptr %2, ptr %6, align 8
  call void @llvm.lifetime.start.p0(i64 4, ptr %7) #9
  store i32 0, ptr %7, align 4
  call void @llvm.lifetime.start.p0(i64 8, ptr %8) #9
  store ptr null, ptr %8, align 8
  call void @llvm.lifetime.start.p0(i64 8, ptr %9) #9
  store ptr null, ptr %9, align 8
  call void @llvm.lifetime.start.p0(i64 8, ptr %10) #9
  store ptr null, ptr %10, align 8
  call void @llvm.lifetime.start.p0(i64 48, ptr %11) #9
  call void @llvm.lifetime.start.p0(i64 32, ptr %12) #9
  call void @llvm.lifetime.start.p0(i64 96, ptr %13) #9
  call void @llvm.memset.p0.i64(ptr align 8 %11, i8 0, i64 48, i1 false)
  call void @llvm.memset.p0.i64(ptr align 8 %12, i8 0, i64 32, i1 false)
  call void @llvm.memset.p0.i64(ptr align 8 %13, i8 0, i64 96, i1 false)
  %15 = load ptr, ptr %4, align 8
  %16 = getelementptr inbounds nuw %struct.sacctmgr_file_opts_t, ptr %15, i32 0, i32 6
  %17 = load ptr, ptr %16, align 8
  %18 = icmp ne ptr %17, null
  br i1 %18, label %19, label %24

19:                                               ; preds = %3
  %20 = load ptr, ptr %4, align 8
  %21 = getelementptr inbounds nuw %struct.sacctmgr_file_opts_t, ptr %20, i32 0, i32 6
  %22 = load ptr, ptr %21, align 8
  %23 = call ptr @xstrdup(ptr noundef %22)
  store ptr %23, ptr %8, align 8
  br label %24

24:                                               ; preds = %19, %3
  %25 = load ptr, ptr %8, align 8
  %26 = icmp ne ptr %25, null
  br i1 %26, label %27, label %44

27:                                               ; preds = %24
  %28 = load ptr, ptr %8, align 8
  %29 = load ptr, ptr %5, align 8
  %30 = getelementptr inbounds nuw %struct.slurmdb_account_rec_t, ptr %29, i32 0, i32 2
  %31 = load ptr, ptr %30, align 8
  %32 = call i32 @xstrcmp(ptr noundef %28, ptr noundef %31)
  %33 = icmp ne i32 %32, 0
  br i1 %33, label %34, label %44

34:                                               ; preds = %27
  %35 = load ptr, ptr %5, align 8
  %36 = getelementptr inbounds nuw %struct.slurmdb_account_rec_t, ptr %35, i32 0, i32 4
  %37 = load ptr, ptr %36, align 8
  %38 = load ptr, ptr %5, align 8
  %39 = getelementptr inbounds nuw %struct.slurmdb_account_rec_t, ptr %38, i32 0, i32 2
  %40 = load ptr, ptr %39, align 8
  %41 = load ptr, ptr %8, align 8
  call void (ptr, ptr, ...) @_xstrfmtcat(ptr noundef %10, ptr noundef @.str.127, ptr noundef @.str.182, ptr noundef @.str.90, ptr noundef %37, ptr noundef %40, ptr noundef %41)
  %42 = load ptr, ptr %8, align 8
  %43 = getelementptr inbounds nuw %struct.slurmdb_account_rec_t, ptr %11, i32 0, i32 2
  store ptr %42, ptr %43, align 8
  store i32 1, ptr %7, align 4
  br label %45

44:                                               ; preds = %27, %24
  call void @slurm_xfree(ptr noundef %8)
  br label %45

45:                                               ; preds = %44, %34
  %46 = load ptr, ptr %4, align 8
  %47 = getelementptr inbounds nuw %struct.sacctmgr_file_opts_t, ptr %46, i32 0, i32 8
  %48 = load ptr, ptr %47, align 8
  %49 = icmp ne ptr %48, null
  br i1 %49, label %50, label %55

50:                                               ; preds = %45
  %51 = load ptr, ptr %4, align 8
  %52 = getelementptr inbounds nuw %struct.sacctmgr_file_opts_t, ptr %51, i32 0, i32 8
  %53 = load ptr, ptr %52, align 8
  %54 = call ptr @xstrdup(ptr noundef %53)
  store ptr %54, ptr %9, align 8
  br label %55

55:                                               ; preds = %50, %45
  %56 = load ptr, ptr %9, align 8
  %57 = icmp ne ptr %56, null
  br i1 %57, label %58, label %75

58:                                               ; preds = %55
  %59 = load ptr, ptr %9, align 8
  %60 = load ptr, ptr %5, align 8
  %61 = getelementptr inbounds nuw %struct.slurmdb_account_rec_t, ptr %60, i32 0, i32 5
  %62 = load ptr, ptr %61, align 8
  %63 = call i32 @xstrcmp(ptr noundef %59, ptr noundef %62)
  %64 = icmp ne i32 %63, 0
  br i1 %64, label %65, label %75

65:                                               ; preds = %58
  %66 = load ptr, ptr %5, align 8
  %67 = getelementptr inbounds nuw %struct.slurmdb_account_rec_t, ptr %66, i32 0, i32 4
  %68 = load ptr, ptr %67, align 8
  %69 = load ptr, ptr %5, align 8
  %70 = getelementptr inbounds nuw %struct.slurmdb_account_rec_t, ptr %69, i32 0, i32 5
  %71 = load ptr, ptr %70, align 8
  %72 = load ptr, ptr %9, align 8
  call void (ptr, ptr, ...) @_xstrfmtcat(ptr noundef %10, ptr noundef @.str.127, ptr noundef @.str.183, ptr noundef @.str.90, ptr noundef %68, ptr noundef %71, ptr noundef %72)
  %73 = load ptr, ptr %9, align 8
  %74 = getelementptr inbounds nuw %struct.slurmdb_account_rec_t, ptr %11, i32 0, i32 5
  store ptr %73, ptr %74, align 8
  store i32 1, ptr %7, align 4
  br label %76

75:                                               ; preds = %58, %55
  call void @slurm_xfree(ptr noundef %9)
  br label %76

76:                                               ; preds = %75, %65
  %77 = load i32, ptr %7, align 4
  %78 = icmp ne i32 %77, 0
  br i1 %78, label %79, label %116

79:                                               ; preds = %76
  call void @llvm.lifetime.start.p0(i64 8, ptr %14) #9
  store ptr null, ptr %14, align 8
  %80 = call ptr @list_create(ptr noundef null)
  %81 = getelementptr inbounds nuw %struct.slurmdb_assoc_cond_t, ptr %13, i32 0, i32 0
  store ptr %80, ptr %81, align 8
  %82 = getelementptr inbounds nuw %struct.slurmdb_assoc_cond_t, ptr %13, i32 0, i32 0
  %83 = load ptr, ptr %82, align 8
  %84 = load ptr, ptr %5, align 8
  %85 = getelementptr inbounds nuw %struct.slurmdb_account_rec_t, ptr %84, i32 0, i32 4
  %86 = load ptr, ptr %85, align 8
  call void @list_append(ptr noundef %83, ptr noundef %86)
  %87 = getelementptr inbounds nuw %struct.slurmdb_account_cond_t, ptr %12, i32 0, i32 0
  store ptr %13, ptr %87, align 8
  call void @notice_thread_init()
  %88 = load ptr, ptr @db_conn, align 8
  %89 = call ptr @slurmdb_accounts_modify(ptr noundef %88, ptr noundef %12, ptr noundef %11)
  store ptr %89, ptr %14, align 8
  call void @notice_thread_fini()
  br label %90

90:                                               ; preds = %79
  %91 = getelementptr inbounds nuw %struct.slurmdb_assoc_cond_t, ptr %13, i32 0, i32 0
  %92 = load ptr, ptr %91, align 8
  %93 = icmp ne ptr %92, null
  br i1 %93, label %94, label %97

94:                                               ; preds = %90
  %95 = getelementptr inbounds nuw %struct.slurmdb_assoc_cond_t, ptr %13, i32 0, i32 0
  %96 = load ptr, ptr %95, align 8
  call void @list_destroy(ptr noundef %96)
  br label %97

97:                                               ; preds = %94, %90
  %98 = getelementptr inbounds nuw %struct.slurmdb_assoc_cond_t, ptr %13, i32 0, i32 0
  store ptr null, ptr %98, align 8
  br label %99

99:                                               ; preds = %97
  br label %100

100:                                              ; preds = %99
  %101 = load ptr, ptr %14, align 8
  %102 = icmp ne ptr %101, null
  br i1 %102, label %103, label %114

103:                                              ; preds = %100
  %104 = load ptr, ptr %10, align 8
  %105 = call i32 (ptr, ...) @printf(ptr noundef @.str.122, ptr noundef %104)
  br label %106

106:                                              ; preds = %103
  %107 = load ptr, ptr %14, align 8
  %108 = icmp ne ptr %107, null
  br i1 %108, label %109, label %111

109:                                              ; preds = %106
  %110 = load ptr, ptr %14, align 8
  call void @list_destroy(ptr noundef %110)
  br label %111

111:                                              ; preds = %109, %106
  store ptr null, ptr %14, align 8
  br label %112

112:                                              ; preds = %111
  br label %113

113:                                              ; preds = %112
  br label %115

114:                                              ; preds = %100
  store i32 0, ptr %7, align 4
  br label %115

115:                                              ; preds = %114, %113
  call void @slurm_xfree(ptr noundef %10)
  call void @llvm.lifetime.end.p0(i64 8, ptr %14) #9
  br label %116

116:                                              ; preds = %115, %76
  call void @slurm_xfree(ptr noundef %8)
  call void @slurm_xfree(ptr noundef %9)
  %117 = load i32, ptr %7, align 4
  call void @llvm.lifetime.end.p0(i64 96, ptr %13) #9
  call void @llvm.lifetime.end.p0(i64 32, ptr %12) #9
  call void @llvm.lifetime.end.p0(i64 48, ptr %11) #9
  call void @llvm.lifetime.end.p0(i64 8, ptr %10) #9
  call void @llvm.lifetime.end.p0(i64 8, ptr %9) #9
  call void @llvm.lifetime.end.p0(i64 8, ptr %8) #9
  call void @llvm.lifetime.end.p0(i64 4, ptr %7) #9
  ret i32 %117
}