; Function Attrs: nounwind uwtable
define internal fastcc range(i32 0, 2) i32 @_mod_acct(ptr noundef nonnull readonly captures(none) %0, ptr noundef nonnull readonly captures(none) %1) unnamed_addr #0 {
  %3 = alloca ptr, align 8
  %4 = alloca ptr, align 8
  %5 = alloca ptr, align 8
  %6 = alloca %struct.slurmdb_account_rec_t, align 8
  %7 = alloca %struct.slurmdb_account_cond_t, align 8
  %8 = alloca %struct.slurmdb_assoc_cond_t, align 8
  call void @llvm.lifetime.start.p0(i64 8, ptr nonnull %3) #12
  store ptr null, ptr %3, align 8
  call void @llvm.lifetime.start.p0(i64 8, ptr nonnull %4) #12
  store ptr null, ptr %4, align 8
  call void @llvm.lifetime.start.p0(i64 8, ptr nonnull %5) #12
  store ptr null, ptr %5, align 8
  call void @llvm.lifetime.start.p0(i64 48, ptr nonnull %6) #12
  call void @llvm.lifetime.start.p0(i64 32, ptr nonnull %7) #12
  call void @llvm.lifetime.start.p0(i64 96, ptr nonnull %8) #12
  call void @llvm.memset.p0.i64(ptr noundef nonnull align 8 dereferenceable(48) %6, i8 0, i64 48, i1 false)
  call void @llvm.memset.p0.i64(ptr noundef nonnull align 8 dereferenceable(32) %7, i8 0, i64 32, i1 false)
  call void @llvm.memset.p0.i64(ptr noundef nonnull align 8 dereferenceable(96) %8, i8 0, i64 96, i1 false)
  %9 = getelementptr inbounds nuw i8, ptr %0, i64 360
  %10 = load ptr, ptr %9, align 8
  %.not = icmp eq ptr %10, null
  br i1 %.not, label %thread-pre-split.thread, label %thread-pre-split

thread-pre-split:                                 ; preds = %2
  %11 = tail call ptr @xstrdup(ptr noundef nonnull %10) #12
  store ptr %11, ptr %3, align 8
  %.not21 = icmp eq ptr %11, null
  br i1 %.not21, label %thread-pre-split.thread, label %12

12:                                               ; preds = %thread-pre-split
  %13 = getelementptr inbounds nuw i8, ptr %1, i64 16
  %14 = load ptr, ptr %13, align 8
  %15 = tail call i32 @xstrcmp(ptr noundef nonnull %11, ptr noundef %14) #12
  %.not22 = icmp eq i32 %15, 0
  br i1 %.not22, label %thread-pre-split.thread, label %16

16:                                               ; preds = %12
  %17 = getelementptr inbounds nuw i8, ptr %1, i64 32
  %18 = load ptr, ptr %17, align 8
  %19 = load ptr, ptr %13, align 8
  call void (ptr, ptr, ...) @_xstrfmtcat(ptr noundef nonnull %5, ptr noundef nonnull @.str.127, ptr noundef nonnull @.str.182, ptr noundef nonnull @.str.90, ptr noundef %18, ptr noundef %19, ptr noundef nonnull %11) #12
  %20 = load ptr, ptr %3, align 8
  %21 = getelementptr inbounds nuw i8, ptr %6, i64 16
  store ptr %20, ptr %21, align 8
  br label %22

thread-pre-split.thread:                          ; preds = %2, %12, %thread-pre-split
  call void @slurm_xfree(ptr noundef nonnull %3) #12
  br label %22

22:                                               ; preds = %thread-pre-split.thread, %16
  %23 = phi i1 [ false, %16 ], [ true, %thread-pre-split.thread ]
  %24 = getelementptr inbounds nuw i8, ptr %0, i64 376
  %25 = load ptr, ptr %24, align 8
  %.not23 = icmp eq ptr %25, null
  br i1 %.not23, label %thread-pre-split1.thread, label %thread-pre-split1

thread-pre-split1:                                ; preds = %22
  %26 = call ptr @xstrdup(ptr noundef nonnull %25) #12
  store ptr %26, ptr %4, align 8
  %.not24 = icmp eq ptr %26, null
  br i1 %.not24, label %thread-pre-split1.thread, label %27

27:                                               ; preds = %thread-pre-split1
  %28 = getelementptr inbounds nuw i8, ptr %1, i64 40
  %29 = load ptr, ptr %28, align 8
  %30 = call i32 @xstrcmp(ptr noundef nonnull %26, ptr noundef %29) #12
  %.not25 = icmp eq i32 %30, 0
  br i1 %.not25, label %thread-pre-split1.thread, label %.critedge

.critedge:                                        ; preds = %27
  %31 = getelementptr inbounds nuw i8, ptr %1, i64 32
  %32 = load ptr, ptr %31, align 8
  %33 = load ptr, ptr %28, align 8
  %34 = load ptr, ptr %4, align 8
  call void (ptr, ptr, ...) @_xstrfmtcat(ptr noundef nonnull %5, ptr noundef nonnull @.str.127, ptr noundef nonnull @.str.183, ptr noundef nonnull @.str.90, ptr noundef %32, ptr noundef %33, ptr noundef %34) #12
  %35 = load ptr, ptr %4, align 8
  %36 = getelementptr inbounds nuw i8, ptr %6, i64 40
  store ptr %35, ptr %36, align 8
  br label %37

thread-pre-split1.thread:                         ; preds = %22, %27, %thread-pre-split1
  call void @slurm_xfree(ptr noundef nonnull %4) #12
  br i1 %23, label %50, label %37

37:                                               ; preds = %.critedge, %thread-pre-split1.thread
  %38 = call ptr @list_create(ptr noundef null) #12
  store ptr %38, ptr %8, align 8
  %39 = getelementptr inbounds nuw i8, ptr %1, i64 32
  %40 = load ptr, ptr %39, align 8
  call void @list_append(ptr noundef %38, ptr noundef %40) #12
  store ptr %8, ptr %7, align 8
  call void @notice_thread_init() #12
  %41 = load ptr, ptr @db_conn, align 8
  %42 = call ptr @slurmdb_accounts_modify(ptr noundef %41, ptr noundef nonnull %7, ptr noundef nonnull %6) #12
  call void @notice_thread_fini() #12
  %43 = load ptr, ptr %8, align 8
  %.not27 = icmp eq ptr %43, null
  br i1 %.not27, label %45, label %44

44:                                               ; preds = %37
  call void @list_destroy(ptr noundef nonnull %43) #12
  br label %45

45:                                               ; preds = %44, %37
  store ptr null, ptr %8, align 8
  %.not28 = icmp eq ptr %42, null
  br i1 %.not28, label %49, label %46

46:                                               ; preds = %45
  %47 = load ptr, ptr %5, align 8
  %48 = call i32 (ptr, ...) @printf(ptr noundef nonnull dereferenceable(1) @.str.122, ptr noundef %47)
  call void @list_destroy(ptr noundef nonnull %42) #12
  br label %49

49:                                               ; preds = %45, %46
  %.3 = phi i32 [ 1, %46 ], [ 0, %45 ]
  call void @slurm_xfree(ptr noundef nonnull %5) #12
  br label %50

50:                                               ; preds = %49, %thread-pre-split1.thread
  %.2 = phi i32 [ %.3, %49 ], [ 0, %thread-pre-split1.thread ]
  call void @slurm_xfree(ptr noundef nonnull %3) #12
  call void @slurm_xfree(ptr noundef nonnull %4) #12
  call void @llvm.lifetime.end.p0(i64 96, ptr nonnull %8) #12
  call void @llvm.lifetime.end.p0(i64 32, ptr nonnull %7) #12
  call void @llvm.lifetime.end.p0(i64 48, ptr nonnull %6) #12
  call void @llvm.lifetime.end.p0(i64 8, ptr nonnull %5) #12
  call void @llvm.lifetime.end.p0(i64 8, ptr nonnull %4) #12
  call void @llvm.lifetime.end.p0(i64 8, ptr nonnull %3) #12
  ret i32 %.2
}